target datalayout = "e-m:e-p270:32:32-p271:32:32-p272:64:64-i64:64-i128:128-f80:128-n8:16:32:64-S128"
target triple = "x86_64-pc-linux-gnu"

%struct.H5A_dense_bt2_name_rec_t = type { %union.H5O_fheap_id_t, i8, i32, i32 }
%union.H5O_fheap_id_t = type { i64 }

@H5A_init_g = external global i8, align 1
@H5_libterm_g = external global i8, align 1

; Function Attrs: nounwind uwtable
define internal i32 @H5A__dense_btree2_name_decode(ptr noundef %0, ptr noundef %1, ptr noundef %2) #0 {
  %4 = alloca ptr, align 8
  %5 = alloca ptr, align 8
  %6 = alloca ptr, align 8
  %7 = alloca ptr, align 8
  store ptr %0, ptr %4, align 8, !tbaa !52
  store ptr %1, ptr %5, align 8, !tbaa !3
  store ptr %2, ptr %6, align 8, !tbaa !3
  call void @llvm.lifetime.start.p0(i64 8, ptr %7) #7
  %8 = load ptr, ptr %5, align 8, !tbaa !3
  store ptr %8, ptr %7, align 8, !tbaa !9
  %9 = load i8, ptr @H5A_init_g, align 1, !tbaa !11, !range !13, !noundef !14
  %10 = trunc i8 %9 to i1
  br i1 %10, label %15, label %11

11:                                               ; preds = %3
  %12 = load i8, ptr @H5_libterm_g, align 1, !tbaa !11, !range !13, !noundef !14
  %13 = trunc i8 %12 to i1
  %14 = xor i1 %13, true
  br label %15

15:                                               ; preds = %11, %3
  %16 = phi i1 [ true, %3 ], [ %14, %11 ]
  %17 = xor i1 %16, true
  %18 = xor i1 %17, true
  %19 = zext i1 %18 to i32
  %20 = sext i32 %19 to i64
  %21 = call i64 @llvm.expect.i64(i64 %20, i64 1)
  %22 = icmp ne i64 %21, 0
  br i1 %22, label %23, label %123

23:                                               ; preds = %15
  %24 = load ptr, ptr %7, align 8, !tbaa !9
  %25 = getelementptr inbounds nuw %struct.H5A_dense_bt2_name_rec_t, ptr %24, i32 0, i32 0
  %26 = getelementptr inbounds [8 x i8], ptr %25, i64 0, i64 0
  %27 = load ptr, ptr %4, align 8, !tbaa !52
  call void @llvm.memcpy.p0.p0.i64(ptr align 8 %26, ptr align 1 %27, i64 8, i1 false)
  %28 = load ptr, ptr %4, align 8, !tbaa !52
  %29 = getelementptr inbounds i8, ptr %28, i64 8
  store ptr %29, ptr %4, align 8, !tbaa !52
  %30 = load ptr, ptr %4, align 8, !tbaa !52
  %31 = getelementptr inbounds nuw i8, ptr %30, i32 1
  store ptr %31, ptr %4, align 8, !tbaa !52
  %32 = load i8, ptr %30, align 1, !tbaa !16
  %33 = load ptr, ptr %7, align 8, !tbaa !9
  %34 = getelementptr inbounds nuw %struct.H5A_dense_bt2_name_rec_t, ptr %33, i32 0, i32 1
  store i8 %32, ptr %34, align 8, !tbaa !24
  br label %35

35:                                               ; preds = %23
  %36 = load ptr, ptr %4, align 8, !tbaa !52
  %37 = load i8, ptr %36, align 1, !tbaa !16
  %38 = zext i8 %37 to i32
  %39 = and i32 %38, 255
  %40 = load ptr, ptr %7, align 8, !tbaa !9
  %41 = getelementptr inbounds nuw %struct.H5A_dense_bt2_name_rec_t, ptr %40, i32 0, i32 2
  store i32 %39, ptr %41, align 4, !tbaa !27
  %42 = load ptr, ptr %4, align 8, !tbaa !52
  %43 = getelementptr inbounds nuw i8, ptr %42, i32 1
  store ptr %43, ptr %4, align 8, !tbaa !52
  %44 = load ptr, ptr %4, align 8, !tbaa !52
  %45 = load i8, ptr %44, align 1, !tbaa !16
  %46 = zext i8 %45 to i32
  %47 = and i32 %46, 255
  %48 = shl i32 %47, 8
  %49 = load ptr, ptr %7, align 8, !tbaa !9
  %50 = getelementptr inbounds nuw %struct.H5A_dense_bt2_name_rec_t, ptr %49, i32 0, i32 2
  %51 = load i32, ptr %50, align 4, !tbaa !27
  %52 = or i32 %51, %48
  store i32 %52, ptr %50, align 4, !tbaa !27
  %53 = load ptr, ptr %4, align 8, !tbaa !52
  %54 = getelementptr inbounds nuw i8, ptr %53, i32 1
  store ptr %54, ptr %4, align 8, !tbaa !52
  %55 = load ptr, ptr %4, align 8, !tbaa !52
  %56 = load i8, ptr %55, align 1, !tbaa !16
  %57 = zext i8 %56 to i32
  %58 = and i32 %57, 255
  %59 = shl i32 %58, 16
  %60 = load ptr, ptr %7, align 8, !tbaa !9
  %61 = getelementptr inbounds nuw %struct.H5A_dense_bt2_name_rec_t, ptr %60, i32 0, i32 2
  %62 = load i32, ptr %61, align 4, !tbaa !27
  %63 = or i32 %62, %59
  store i32 %63, ptr %61, align 4, !tbaa !27
  %64 = load ptr, ptr %4, align 8, !tbaa !52
  %65 = getelementptr inbounds nuw i8, ptr %64, i32 1
  store ptr %65, ptr %4, align 8, !tbaa !52
  %66 = load ptr, ptr %4, align 8, !tbaa !52
  %67 = load i8, ptr %66, align 1, !tbaa !16
  %68 = zext i8 %67 to i32
  %69 = and i32 %68, 255
  %70 = shl i32 %69, 24
  %71 = load ptr, ptr %7, align 8, !tbaa !9
  %72 = getelementptr inbounds nuw %struct.H5A_dense_bt2_name_rec_t, ptr %71, i32 0, i32 2
  %73 = load i32, ptr %72, align 4, !tbaa !27
  %74 = or i32 %73, %70
  store i32 %74, ptr %72, align 4, !tbaa !27
  %75 = load ptr, ptr %4, align 8, !tbaa !52
  %76 = getelementptr inbounds nuw i8, ptr %75, i32 1
  store ptr %76, ptr %4, align 8, !tbaa !52
  br label %77

77:                                               ; preds = %35
  br label %78

78:                                               ; preds = %77
  br label %79

79:                                               ; preds = %78
  %80 = load ptr, ptr %4, align 8, !tbaa !52
  %81 = load i8, ptr %80, align 1, !tbaa !16
  %82 = zext i8 %81 to i32
  %83 = and i32 %82, 255
  %84 = load ptr, ptr %7, align 8, !tbaa !9
  %85 = getelementptr inbounds nuw %struct.H5A_dense_bt2_name_rec_t, ptr %84, i32 0, i32 3
  store i32 %83, ptr %85, align 8, !tbaa !29
  %86 = load ptr, ptr %4, align 8, !tbaa !52
  %87 = getelementptr inbounds nuw i8, ptr %86, i32 1
  store ptr %87, ptr %4, align 8, !tbaa !52
  %88 = load ptr, ptr %4, align 8, !tbaa !52
  %89 = load i8, ptr %88, align 1, !tbaa !16
  %90 = zext i8 %89 to i32
  %91 = and i32 %90, 255
  %92 = shl i32 %91, 8
  %93 = load ptr, ptr %7, align 8, !tbaa !9
  %94 = getelementptr inbounds nuw %struct.H5A_dense_bt2_name_rec_t, ptr %93, i32 0, i32 3
  %95 = load i32, ptr %94, align 8, !tbaa !29
  %96 = or i32 %95, %92
  store i32 %96, ptr %94, align 8, !tbaa !29
  %97 = load ptr, ptr %4, align 8, !tbaa !52
  %98 = getelementptr inbounds nuw i8, ptr %97, i32 1
  store ptr %98, ptr %4, align 8, !tbaa !52
  %99 = load ptr, ptr %4, align 8, !tbaa !52
  %100 = load i8, ptr %99, align 1, !tbaa !16
  %101 = zext i8 %100 to i32
  %102 = and i32 %101, 255
  %103 = shl i32 %102, 16
  %104 = load ptr, ptr %7, align 8, !tbaa !9
  %105 = getelementptr inbounds nuw %struct.H5A_dense_bt2_name_rec_t, ptr %104, i32 0, i32 3
  %106 = load i32, ptr %105, align 8, !tbaa !29
  %107 = or i32 %106, %103
  store i32 %107, ptr %105, align 8, !tbaa !29
  %108 = load ptr, ptr %4, align 8, !tbaa !52
  %109 = getelementptr inbounds nuw i8, ptr %108, i32 1
  store ptr %109, ptr %4, align 8, !tbaa !52
  %110 = load ptr, ptr %4, align 8, !tbaa !52
  %111 = load i8, ptr %110, align 1, !tbaa !16
  %112 = zext i8 %111 to i32
  %113 = and i32 %112, 255
  %114 = shl i32 %113, 24
  %115 = load ptr, ptr %7, align 8, !tbaa !9
  %116 = getelementptr inbounds nuw %struct.H5A_dense_bt2_name_rec_t, ptr %115, i32 0, i32 3
  %117 = load i32, ptr %116, align 8, !tbaa !29
  %118 = or i32 %117, %114
  store i32 %118, ptr %116, align 8, !tbaa !29
  %119 = load ptr, ptr %4, align 8, !tbaa !52
  %120 = getelementptr inbounds nuw i8, ptr %119, i32 1
  store ptr %120, ptr %4, align 8, !tbaa !52
  br label %121

121:                                              ; preds = %79
  br label %122

122:                                              ; preds = %121
  br label %123

123:                                              ; preds = %122, %15
  call void @llvm.lifetime.end.p0(i64 8, ptr %7) #7
  ret i32 0
}