; Function Attrs: mustprogress nofree norecurse nosync nounwind willreturn memory(read, argmem: readwrite, inaccessiblemem: none) uwtable
define internal noundef i32 @H5A__dense_btree2_name_decode(ptr noundef readonly captures(none) %0, ptr noundef writeonly captures(none) %1, ptr readnone captures(none) %2) #0 {
  %4 = load i8, ptr @H5A_init_g, align 1, !tbaa !3, !range !7, !noundef !8
  %5 = trunc nuw i8 %4 to i1
  %6 = load i8, ptr @H5_libterm_g, align 1, !range !7
  %7 = trunc nuw i8 %6 to i1
  %8 = xor i1 %7, true
  %9 = select i1 %5, i1 true, i1 %8
  br i1 %9, label %10, label %53, !prof !9

10:                                               ; preds = %3
  %11 = load i64, ptr %0, align 1
  store i64 %11, ptr %1, align 8
  %12 = getelementptr inbounds nuw i8, ptr %0, i64 8
  %13 = getelementptr inbounds nuw i8, ptr %0, i64 9
  %14 = load i8, ptr %12, align 1, !tbaa !10
  %15 = getelementptr inbounds nuw i8, ptr %1, i64 8
  store i8 %14, ptr %15, align 8, !tbaa !19
  %16 = load i8, ptr %13, align 1, !tbaa !10
  %17 = zext i8 %16 to i32
  %18 = getelementptr inbounds nuw i8, ptr %1, i64 12
  store i32 %17, ptr %18, align 4, !tbaa !22
  %19 = getelementptr inbounds nuw i8, ptr %0, i64 10
  %20 = load i8, ptr %19, align 1, !tbaa !10
  %21 = zext i8 %20 to i32
  %22 = shl nuw nsw i32 %21, 8
  %23 = or disjoint i32 %22, %17
  store i32 %23, ptr %18, align 4, !tbaa !22
  %24 = getelementptr inbounds nuw i8, ptr %0, i64 11
  %25 = load i8, ptr %24, align 1, !tbaa !10
  %26 = zext i8 %25 to i32
  %27 = shl nuw nsw i32 %26, 16
  %28 = or disjoint i32 %27, %23
  store i32 %28, ptr %18, align 4, !tbaa !22
  %29 = getelementptr inbounds nuw i8, ptr %0, i64 12
  %30 = load i8, ptr %29, align 1, !tbaa !10
  %31 = zext i8 %30 to i32
  %32 = shl nuw i32 %31, 24
  %33 = or disjoint i32 %32, %28
  store i32 %33, ptr %18, align 4, !tbaa !22
  %34 = getelementptr inbounds nuw i8, ptr %0, i64 13
  %35 = load i8, ptr %34, align 1, !tbaa !10
  %36 = zext i8 %35 to i32
  %37 = getelementptr inbounds nuw i8, ptr %1, i64 16
  store i32 %36, ptr %37, align 8, !tbaa !24
  %38 = getelementptr inbounds nuw i8, ptr %0, i64 14
  %39 = load i8, ptr %38, align 1, !tbaa !10
  %40 = zext i8 %39 to i32
  %41 = shl nuw nsw i32 %40, 8
  %42 = or disjoint i32 %41, %36
  store i32 %42, ptr %37, align 8, !tbaa !24
  %43 = getelementptr inbounds nuw i8, ptr %0, i64 15
  %44 = load i8, ptr %43, align 1, !tbaa !10
  %45 = zext i8 %44 to i32
  %46 = shl nuw nsw i32 %45, 16
  %47 = or disjoint i32 %46, %42
  store i32 %47, ptr %37, align 8, !tbaa !24
  %48 = getelementptr inbounds nuw i8, ptr %0, i64 16
  %49 = load i8, ptr %48, align 1, !tbaa !10
  %50 = zext i8 %49 to i32
  %51 = shl nuw i32 %50, 24
  %52 = or disjoint i32 %51, %47
  store i32 %52, ptr %37, align 8, !tbaa !24
  br label %53

53:                                               ; preds = %10, %3
  ret i32 0
}